target datalayout = "e-m:e-p270:32:32-p271:32:32-p272:64:64-i64:64-i128:128-f80:128-n8:16:32:64-S128"
target triple = "x86_64-pc-linux-gnu"

%"class.icu_77::number::impl::DecNum" = type { %"class.icu_77::MaybeStackHeaderAndArray", %struct.decContext, [4 x i8] }
%"class.icu_77::MaybeStackHeaderAndArray" = type <{ ptr, i32, i8, [3 x i8], %struct.decNumber, [34 x i8], [2 x i8] }>
%struct.decNumber = type { i32, i32, i8, [1 x i8] }
%struct.decContext = type { i32, i32, i32, i32, i32, i32, i8 }

; Function Attrs: mustprogress uwtable
define linkonce_odr void @_ZN6icu_7724MaybeStackHeaderAndArrayI9decNumbercLi34EE13releaseMemoryEv(ptr noundef nonnull align 8 dereferenceable(62) %0) #1 comdat align 2 {
  %2 = alloca ptr, align 8
  store ptr %0, ptr %2, align 8, !tbaa !48
  %3 = load ptr, ptr %2, align 8
  %4 = getelementptr inbounds nuw %"class.icu_77::MaybeStackHeaderAndArray", ptr %3, i32 0, i32 2
  %5 = load i8, ptr %4, align 4, !tbaa !52
  %6 = icmp ne i8 %5, 0
  br i1 %6, label %7, label %10

7:                                                ; preds = %1
  %8 = getelementptr inbounds nuw %"class.icu_77::MaybeStackHeaderAndArray", ptr %3, i32 0, i32 0
  %9 = load ptr, ptr %8, align 8, !tbaa !50
  call void @uprv_free_77(ptr noundef %9)
  br label %10

10:                                               ; preds = %7, %1
  ret void
}

; Function Attrs: mustprogress nounwind uwtable
define linkonce_odr noundef ptr @_ZNK6icu_7724MaybeStackHeaderAndArrayI9decNumbercLi34EE13getArrayLimitEv(ptr noundef nonnull align 8 dereferenceable(62) %0) #0 comdat align 2 {
  %2 = alloca ptr, align 8
  store ptr %0, ptr %2, align 8, !tbaa !48
  %3 = load ptr, ptr %2, align 8
  %4 = call noundef ptr @_ZNK6icu_7724MaybeStackHeaderAndArrayI9decNumbercLi34EE13getArrayStartEv(ptr noundef nonnull align 8 dereferenceable(62) %3)
  %5 = getelementptr inbounds nuw %"class.icu_77::MaybeStackHeaderAndArray", ptr %3, i32 0, i32 1
  %6 = load i32, ptr %5, align 8, !tbaa !51
  %7 = sext i32 %6 to i64
  %8 = getelementptr inbounds i8, ptr %4, i64 %7
  ret ptr %8
}

; Function Attrs: mustprogress nounwind uwtable
define linkonce_odr noundef ptr @_ZNK6icu_7724MaybeStackHeaderAndArrayI9decNumbercLi34EE13getArrayStartEv(ptr noundef nonnull align 8 dereferenceable(62) %0) #0 comdat align 2 {
  %2 = alloca ptr, align 8
  store ptr %0, ptr %2, align 8, !tbaa !48
  %3 = load ptr, ptr %2, align 8
  %4 = call noundef ptr @_ZNK6icu_7724MaybeStackHeaderAndArrayI9decNumbercLi34EE8getAliasEv(ptr noundef nonnull align 8 dereferenceable(62) %3)
  %5 = getelementptr inbounds %struct.decNumber, ptr %4, i64 1
  ret ptr %5
}

; Function Attrs: mustprogress nounwind uwtable
define linkonce_odr noundef ptr @_ZNK6icu_7724MaybeStackHeaderAndArrayI9decNumbercLi34EE8getAliasEv(ptr noundef nonnull align 8 dereferenceable(62) %0) #0 comdat align 2 {
  %2 = alloca ptr, align 8
  store ptr %0, ptr %2, align 8, !tbaa !48
  %3 = load ptr, ptr %2, align 8
  %4 = getelementptr inbounds nuw %"class.icu_77::MaybeStackHeaderAndArray", ptr %3, i32 0, i32 0
  %5 = load ptr, ptr %4, align 8, !tbaa !50
  ret ptr %5
}

; Function Attrs: inlinehint mustprogress uwtable
define linkonce_odr noundef ptr @_ZN6icu_7724MaybeStackHeaderAndArrayI9decNumbercLi34EE6resizeEii(ptr noundef nonnull align 8 dereferenceable(62) %0, i32 noundef %1, i32 noundef %2) #3 comdat align 2 {
  %4 = alloca ptr, align 8
  %5 = alloca ptr, align 8
  %6 = alloca i32, align 4
  %7 = alloca i32, align 4
  %8 = alloca ptr, align 8
  store ptr %0, ptr %5, align 8, !tbaa !48
  store i32 %1, ptr %6, align 4, !tbaa !14
  store i32 %2, ptr %7, align 4, !tbaa !14
  %9 = load ptr, ptr %5, align 8
  %10 = load i32, ptr %6, align 4, !tbaa !14
  %11 = icmp sge i32 %10, 0
  br i1 %11, label %12, label %61

12:                                               ; preds = %3
  call void @llvm.lifetime.start.p0(i64 8, ptr %8) #12
  %13 = load i32, ptr %6, align 4, !tbaa !14
  %14 = sext i32 %13 to i64
  %15 = mul i64 %14, 1
  %16 = add i64 12, %15
  %17 = call noalias ptr @uprv_malloc_77(i64 noundef %16) #13
  store ptr %17, ptr %8, align 8, !tbaa !22
  %18 = load ptr, ptr %8, align 8, !tbaa !22
  %19 = icmp ne ptr %18, null
  br i1 %19, label %20, label %59

20:                                               ; preds = %12
  %21 = load i32, ptr %7, align 4, !tbaa !14
  %22 = icmp slt i32 %21, 0
  br i1 %22, label %23, label %24

23:                                               ; preds = %20
  store i32 0, ptr %7, align 4, !tbaa !14
  br label %43

24:                                               ; preds = %20
  %25 = load i32, ptr %7, align 4, !tbaa !14
  %26 = icmp sgt i32 %25, 0
  br i1 %26, label %27, label %42

27:                                               ; preds = %24
  %28 = load i32, ptr %7, align 4, !tbaa !14
  %29 = getelementptr inbounds nuw %"class.icu_77::MaybeStackHeaderAndArray", ptr %9, i32 0, i32 1
  %30 = load i32, ptr %29, align 8, !tbaa !51
  %31 = icmp sgt i32 %28, %30
  br i1 %31, label %32, label %35

32:                                               ; preds = %27
  %33 = getelementptr inbounds nuw %"class.icu_77::MaybeStackHeaderAndArray", ptr %9, i32 0, i32 1
  %34 = load i32, ptr %33, align 8, !tbaa !51
  store i32 %34, ptr %7, align 4, !tbaa !14
  br label %35

35:                                               ; preds = %32, %27
  %36 = load i32, ptr %7, align 4, !tbaa !14
  %37 = load i32, ptr %6, align 4, !tbaa !14
  %38 = icmp sgt i32 %36, %37
  br i1 %38, label %39, label %41

39:                                               ; preds = %35
  %40 = load i32, ptr %6, align 4, !tbaa !14
  store i32 %40, ptr %7, align 4, !tbaa !14
  br label %41

41:                                               ; preds = %39, %35
  br label %42

42:                                               ; preds = %41, %24
  br label %43

43:                                               ; preds = %42, %23
  br label %44

44:                                               ; preds = %43
  %45 = load ptr, ptr %8, align 8, !tbaa !22
  %46 = getelementptr inbounds nuw %"class.icu_77::MaybeStackHeaderAndArray", ptr %9, i32 0, i32 0
  %47 = load ptr, ptr %46, align 8, !tbaa !50
  %48 = load i32, ptr %7, align 4, !tbaa !14
  %49 = sext i32 %48 to i64
  %50 = mul i64 %49, 1
  %51 = add i64 12, %50
  call void @llvm.memcpy.p0.p0.i64(ptr align 4 %45, ptr align 4 %47, i64 %51, i1 false)
  br label %52

52:                                               ; preds = %44
  br label %53

53:                                               ; preds = %52
  call void @_ZN6icu_7724MaybeStackHeaderAndArrayI9decNumbercLi34EE13releaseMemoryEv(ptr noundef nonnull align 8 dereferenceable(62) %9)
  %54 = load ptr, ptr %8, align 8, !tbaa !22
  %55 = getelementptr inbounds nuw %"class.icu_77::MaybeStackHeaderAndArray", ptr %9, i32 0, i32 0
  store ptr %54, ptr %55, align 8, !tbaa !50
  %56 = load i32, ptr %6, align 4, !tbaa !14
  %57 = getelementptr inbounds nuw %"class.icu_77::MaybeStackHeaderAndArray", ptr %9, i32 0, i32 1
  store i32 %56, ptr %57, align 8, !tbaa !51
  %58 = getelementptr inbounds nuw %"class.icu_77::MaybeStackHeaderAndArray", ptr %9, i32 0, i32 2
  store i8 1, ptr %58, align 4, !tbaa !52
  br label %59

59:                                               ; preds = %53, %12
  %60 = load ptr, ptr %8, align 8, !tbaa !22
  store ptr %60, ptr %4, align 8
  call void @llvm.lifetime.end.p0(i64 8, ptr %8) #12
  br label %62

61:                                               ; preds = %3
  store ptr null, ptr %4, align 8
  br label %62

62:                                               ; preds = %61, %59
  %63 = load ptr, ptr %4, align 8
  ret ptr %63
}

; Function Attrs: mustprogress nounwind uwtable
define linkonce_odr void @_ZN6icu_7724MaybeStackHeaderAndArrayI9decNumbercLi34EEC2Ev(ptr noundef nonnull align 8 dereferenceable(62) %0) unnamed_addr #0 comdat align 2 {
  %2 = alloca ptr, align 8
  store ptr %0, ptr %2, align 8, !tbaa !48
  %3 = load ptr, ptr %2, align 8
  %4 = getelementptr inbounds nuw %"class.icu_77::MaybeStackHeaderAndArray", ptr %3, i32 0, i32 0
  %5 = getelementptr inbounds nuw %"class.icu_77::MaybeStackHeaderAndArray", ptr %3, i32 0, i32 4
  store ptr %5, ptr %4, align 8, !tbaa !50
  %6 = getelementptr inbounds nuw %"class.icu_77::MaybeStackHeaderAndArray", ptr %3, i32 0, i32 1
  store i32 34, ptr %6, align 8, !tbaa !51
  %7 = getelementptr inbounds nuw %"class.icu_77::MaybeStackHeaderAndArray", ptr %3, i32 0, i32 2
  store i8 0, ptr %7, align 4, !tbaa !52
  ret void
}

; Function Attrs: mustprogress uwtable
define void @_ZN6icu_776number4impl6DecNumC2ERKS2_R10UErrorCode(ptr noundef nonnull align 8 dereferenceable(92) %0, ptr noundef nonnull align 8 dereferenceable(92) %1, ptr noundef nonnull align 4 dereferenceable(4) %2) unnamed_addr #1 align 2 personality ptr @__gxx_personality_v0 {
  %4 = alloca ptr, align 8
  %5 = alloca ptr, align 8
  %6 = alloca ptr, align 8
  %7 = alloca ptr, align 8
  %8 = alloca ptr, align 8
  %9 = alloca i32, align 4
  %10 = alloca i32, align 4
  store ptr %0, ptr %4, align 8, !tbaa !40
  store ptr %1, ptr %5, align 8, !tbaa !40
  store ptr %2, ptr %6, align 8, !tbaa !22
  %11 = load ptr, ptr %4, align 8
  %12 = getelementptr inbounds nuw %"class.icu_77::number::impl::DecNum", ptr %11, i32 0, i32 0
  call void @_ZN6icu_7724MaybeStackHeaderAndArrayI9decNumbercLi34EEC2Ev(ptr noundef nonnull align 8 dereferenceable(62) %12)
  %13 = getelementptr inbounds nuw %"class.icu_77::number::impl::DecNum", ptr %11, i32 0, i32 1
  %14 = load ptr, ptr %5, align 8, !tbaa !40
  %15 = getelementptr inbounds nuw %"class.icu_77::number::impl::DecNum", ptr %14, i32 0, i32 1
  call void @llvm.memcpy.p0.p0.i64(ptr align 8 %13, ptr align 8 %15, i64 28, i1 false), !tbaa.struct !53
  %16 = getelementptr inbounds nuw %"class.icu_77::number::impl::DecNum", ptr %11, i32 0, i32 1
  %17 = getelementptr inbounds nuw %struct.decContext, ptr %16, i32 0, i32 0
  %18 = load i32, ptr %17, align 8, !tbaa !56
  %19 = icmp sgt i32 %18, 34
  br i1 %19, label %20, label %39

20:                                               ; preds = %3
  call void @llvm.lifetime.start.p0(i64 8, ptr %7) #12
  %21 = getelementptr inbounds nuw %"class.icu_77::number::impl::DecNum", ptr %11, i32 0, i32 0
  %22 = getelementptr inbounds nuw %"class.icu_77::number::impl::DecNum", ptr %11, i32 0, i32 1
  %23 = getelementptr inbounds nuw %struct.decContext, ptr %22, i32 0, i32 0
  %24 = load i32, ptr %23, align 8, !tbaa !56
  %25 = invoke noundef ptr @_ZN6icu_7724MaybeStackHeaderAndArrayI9decNumbercLi34EE6resizeEii(ptr noundef nonnull align 8 dereferenceable(62) %21, i32 noundef %24, i32 noundef 0)
          to label %26 unwind label %31

26:                                               ; preds = %20
  store ptr %25, ptr %7, align 8, !tbaa !22
  %27 = load ptr, ptr %7, align 8, !tbaa !22
  %28 = icmp eq ptr %27, null
  br i1 %28, label %29, label %35

29:                                               ; preds = %26
  %30 = load ptr, ptr %6, align 8, !tbaa !22
  store i32 7, ptr %30, align 4, !tbaa !15
  store i32 1, ptr %10, align 4
  br label %36

31:                                               ; preds = %20
  %32 = landingpad { ptr, i32 }
          cleanup
  %33 = extractvalue { ptr, i32 } %32, 0
  store ptr %33, ptr %8, align 8
  %34 = extractvalue { ptr, i32 } %32, 1
  store i32 %34, ptr %9, align 4
  call void @llvm.lifetime.end.p0(i64 8, ptr %7) #12
  br label %75

35:                                               ; preds = %26
  store i32 0, ptr %10, align 4
  br label %36

36:                                               ; preds = %35, %29
  call void @llvm.lifetime.end.p0(i64 8, ptr %7) #12
  %37 = load i32, ptr %10, align 4
  switch i32 %37, label %81 [
    i32 0, label %38
    i32 1, label %70
  ]

38:                                               ; preds = %36
  br label %39

39:                                               ; preds = %38, %3
  br label %40

40:                                               ; preds = %39
  %41 = getelementptr inbounds nuw %"class.icu_77::number::impl::DecNum", ptr %11, i32 0, i32 0
  %42 = invoke noundef ptr @_ZNK6icu_7724MaybeStackHeaderAndArrayI9decNumbercLi34EE8getAliasEv(ptr noundef nonnull align 8 dereferenceable(62) %41)
          to label %43 unwind label %71

43:                                               ; preds = %40
  %44 = load ptr, ptr %5, align 8, !tbaa !40
  %45 = getelementptr inbounds nuw %"class.icu_77::number::impl::DecNum", ptr %44, i32 0, i32 0
  %46 = invoke noundef ptr @_ZNK6icu_7724MaybeStackHeaderAndArrayI9decNumbercLi34EE8getAliasEv(ptr noundef nonnull align 8 dereferenceable(62) %45)
          to label %47 unwind label %71

47:                                               ; preds = %43
  call void @llvm.memcpy.p0.p0.i64(ptr align 4 %42, ptr align 4 %46, i64 12, i1 false)
  br label %48

48:                                               ; preds = %47
  br label %49

49:                                               ; preds = %48
  br label %50

50:                                               ; preds = %49
  %51 = getelementptr inbounds nuw %"class.icu_77::number::impl::DecNum", ptr %11, i32 0, i32 0
  %52 = invoke noundef ptr @_ZNK6icu_7724MaybeStackHeaderAndArrayI9decNumbercLi34EE13getArrayStartEv(ptr noundef nonnull align 8 dereferenceable(62) %51)
          to label %53 unwind label %71

53:                                               ; preds = %50
  %54 = load ptr, ptr %5, align 8, !tbaa !40
  %55 = getelementptr inbounds nuw %"class.icu_77::number::impl::DecNum", ptr %54, i32 0, i32 0
  %56 = invoke noundef ptr @_ZNK6icu_7724MaybeStackHeaderAndArrayI9decNumbercLi34EE13getArrayStartEv(ptr noundef nonnull align 8 dereferenceable(62) %55)
          to label %57 unwind label %71

57:                                               ; preds = %53
  %58 = load ptr, ptr %5, align 8, !tbaa !40
  %59 = getelementptr inbounds nuw %"class.icu_77::number::impl::DecNum", ptr %58, i32 0, i32 0
  %60 = invoke noundef ptr @_ZNK6icu_7724MaybeStackHeaderAndArrayI9decNumbercLi34EE13getArrayLimitEv(ptr noundef nonnull align 8 dereferenceable(62) %59)
          to label %61 unwind label %71

61:                                               ; preds = %57
  %62 = load ptr, ptr %5, align 8, !tbaa !40
  %63 = getelementptr inbounds nuw %"class.icu_77::number::impl::DecNum", ptr %62, i32 0, i32 0
  %64 = invoke noundef ptr @_ZNK6icu_7724MaybeStackHeaderAndArrayI9decNumbercLi34EE13getArrayStartEv(ptr noundef nonnull align 8 dereferenceable(62) %63)
          to label %65 unwind label %71

65:                                               ; preds = %61
  %66 = ptrtoint ptr %60 to i64
  %67 = ptrtoint ptr %64 to i64
  %68 = sub i64 %66, %67
  call void @llvm.memcpy.p0.p0.i64(ptr align 1 %52, ptr align 1 %56, i64 %68, i1 false)
  br label %69

69:                                               ; preds = %65
  br label %70

70:                                               ; preds = %36, %69
  ret void

71:                                               ; preds = %61, %57, %53, %50, %43, %40
  %72 = landingpad { ptr, i32 }
          cleanup
  %73 = extractvalue { ptr, i32 } %72, 0
  store ptr %73, ptr %8, align 8
  %74 = extractvalue { ptr, i32 } %72, 1
  store i32 %74, ptr %9, align 4
  br label %75

75:                                               ; preds = %71, %31
  call void @_ZN6icu_7724MaybeStackHeaderAndArrayI9decNumbercLi34EED2Ev(ptr noundef nonnull align 8 dereferenceable(62) %12) #12
  br label %76

76:                                               ; preds = %75
  %77 = load ptr, ptr %8, align 8
  %78 = load i32, ptr %9, align 4
  %79 = insertvalue { ptr, i32 } poison, ptr %77, 0
  %80 = insertvalue { ptr, i32 } %79, i32 %78, 1
  resume { ptr, i32 } %80

81:                                               ; preds = %36
  unreachable
}