; Function Attrs: mustprogress uwtable
define void @_ZN6icu_776number4impl6DecNumC2ERKS2_R10UErrorCode(ptr noundef nonnull align 8 dereferenceable(92) %0, ptr noundef nonnull readonly align 8 captures(none) dereferenceable(92) %1, ptr noundef nonnull writeonly align 4 captures(none) dereferenceable(4) %2) unnamed_addr #1 align 2 personality ptr @__gxx_personality_v0 {
  %4 = getelementptr inbounds nuw i8, ptr %0, i64 16
  store ptr %4, ptr %0, align 8, !tbaa !24
  %5 = getelementptr inbounds nuw i8, ptr %0, i64 8
  store i32 34, ptr %5, align 8, !tbaa !27
  %6 = getelementptr inbounds nuw i8, ptr %0, i64 12
  store i8 0, ptr %6, align 4, !tbaa !28
  %7 = getelementptr inbounds nuw i8, ptr %0, i64 64
  %8 = getelementptr inbounds nuw i8, ptr %1, i64 64
  tail call void @llvm.memcpy.p0.p0.i64(ptr noundef nonnull align 8 dereferenceable(28) %7, ptr noundef nonnull align 8 dereferenceable(28) %8, i64 28, i1 false), !tbaa.struct !33
  %9 = load i32, ptr %7, align 8, !tbaa !35
  %10 = icmp sgt i32 %9, 34
  br i1 %10, label %11, label %21

11:                                               ; preds = %3
  %narrow.i = add nuw i32 %9, 12
  %12 = zext i32 %narrow.i to i64
  %13 = invoke noalias ptr @uprv_malloc_77(i64 noundef %12) #15
          to label %.noexc unwind label %18

.noexc:                                           ; preds = %11
  %.not.i = icmp eq ptr %13, null
  br i1 %.not.i, label %20, label %14

14:                                               ; preds = %.noexc
  %15 = load ptr, ptr %0, align 8, !tbaa !24
  tail call void @llvm.memcpy.p0.p0.i64(ptr noundef nonnull align 4 dereferenceable(12) %13, ptr noundef nonnull align 4 dereferenceable(12) %15, i64 12, i1 false)
  %16 = load i8, ptr %6, align 4, !tbaa !28
  %.not.i.i = icmp eq i8 %16, 0
  br i1 %.not.i.i, label %.thread, label %17

17:                                               ; preds = %14
  invoke void @uprv_free_77(ptr noundef nonnull %15)
          to label %.thread unwind label %18

.thread:                                          ; preds = %17, %14
  store ptr %13, ptr %0, align 8, !tbaa !24
  store i32 %9, ptr %5, align 8, !tbaa !27
  store i8 1, ptr %6, align 4, !tbaa !28
  br label %21

18:                                               ; preds = %17, %11
  %19 = landingpad { ptr, i32 }
          cleanup
  tail call void @_ZN6icu_7724MaybeStackHeaderAndArrayI9decNumbercLi34EED2Ev(ptr noundef nonnull align 8 dereferenceable(62) %0) #14
  resume { ptr, i32 } %19

20:                                               ; preds = %.noexc
  store i32 7, ptr %2, align 4, !tbaa !13
  br label %30

21:                                               ; preds = %.thread, %3
  %22 = phi ptr [ %13, %.thread ], [ %4, %3 ]
  %23 = load ptr, ptr %1, align 8, !tbaa !24
  tail call void @llvm.memcpy.p0.p0.i64(ptr noundef nonnull align 4 dereferenceable(12) %22, ptr noundef nonnull align 4 dereferenceable(12) %23, i64 12, i1 false)
  %24 = getelementptr inbounds nuw i8, ptr %22, i64 12
  %25 = load ptr, ptr %1, align 8, !tbaa !24
  %26 = getelementptr inbounds nuw i8, ptr %25, i64 12
  %27 = getelementptr inbounds nuw i8, ptr %1, i64 8
  %28 = load i32, ptr %27, align 8, !tbaa !27
  %29 = sext i32 %28 to i64
  tail call void @llvm.memcpy.p0.p0.i64(ptr nonnull align 1 %24, ptr nonnull align 1 %26, i64 %29, i1 false)
  br label %30

30:                                               ; preds = %20, %21
  ret void
}